; Function Attrs: mustprogress nounwind uwtable
define hidden void @_ZN4cvc58internal6theory11quantifiers4inst11TriggerTrieD2Ev(ptr noundef nonnull align 8 dereferenceable(72) %0) unnamed_addr #4 align 2 personality ptr @__gxx_personality_v0 {
  %2 = getelementptr inbounds nuw i8, ptr %0, i64 8
  %3 = load ptr, ptr %2, align 8, !tbaa !16
  %4 = load ptr, ptr %0, align 8, !tbaa !19
  %.not = icmp eq ptr %3, %4
  br i1 %.not, label %._crit_edge, label %.lr.ph.preheader

.lr.ph.preheader:                                 ; preds = %1
  %5 = ptrtoint ptr %3 to i64
  %6 = ptrtoint ptr %4 to i64
  %7 = sub i64 %5, %6
  %8 = ashr exact i64 %7, 3
  %umax = tail call i64 @llvm.umax.i64(i64 %8, i64 1)
  br label %.lr.ph

._crit_edge:                                      ; preds = %30, %1
  %9 = getelementptr inbounds nuw i8, ptr %0, i64 24
  %10 = getelementptr inbounds nuw i8, ptr %0, i64 40
  %11 = load ptr, ptr %10, align 8, !tbaa !12
  invoke void @_ZNSt8_Rb_treeIN4cvc58internal12NodeTemplateILb1EEESt4pairIKS3_NS1_6theory11quantifiers4inst11TriggerTrieEESt10_Select1stISA_ESt4lessIS3_ESaISA_EE8_M_eraseEPSt13_Rb_tree_nodeISA_E(ptr noundef nonnull align 8 dereferenceable(48) %9, ptr noundef %11)
          to label %_ZNSt8_Rb_treeIN4cvc58internal12NodeTemplateILb1EEESt4pairIKS3_NS1_6theory11quantifiers4inst11TriggerTrieEESt10_Select1stISA_ESt4lessIS3_ESaISA_EED2Ev.exit unwind label %12

12:                                               ; preds = %._crit_edge
  %13 = landingpad { ptr, i32 }
          catch ptr null
  %14 = extractvalue { ptr, i32 } %13, 0
  tail call void @__clang_call_terminate(ptr %14) #20
  unreachable

_ZNSt8_Rb_treeIN4cvc58internal12NodeTemplateILb1EEESt4pairIKS3_NS1_6theory11quantifiers4inst11TriggerTrieEESt10_Select1stISA_ESt4lessIS3_ESaISA_EED2Ev.exit: ; preds = %._crit_edge
  %15 = load ptr, ptr %0, align 8, !tbaa !19
  %.not.i.i.i = icmp eq ptr %15, null
  br i1 %.not.i.i.i, label %_ZNSt6vectorIPN4cvc58internal6theory11quantifiers4inst7TriggerESaIS6_EED2Ev.exit, label %16

16:                                               ; preds = %_ZNSt8_Rb_treeIN4cvc58internal12NodeTemplateILb1EEESt4pairIKS3_NS1_6theory11quantifiers4inst11TriggerTrieEESt10_Select1stISA_ESt4lessIS3_ESaISA_EED2Ev.exit
  %17 = getelementptr inbounds nuw i8, ptr %0, i64 16
  %18 = load ptr, ptr %17, align 8, !tbaa !20
  %19 = ptrtoint ptr %18 to i64
  %20 = ptrtoint ptr %15 to i64
  %21 = sub i64 %19, %20
  tail call void @_ZdlPvm(ptr noundef nonnull %15, i64 noundef %21) #21
  br label %_ZNSt6vectorIPN4cvc58internal6theory11quantifiers4inst7TriggerESaIS6_EED2Ev.exit

_ZNSt6vectorIPN4cvc58internal6theory11quantifiers4inst7TriggerESaIS6_EED2Ev.exit: ; preds = %_ZNSt8_Rb_treeIN4cvc58internal12NodeTemplateILb1EEESt4pairIKS3_NS1_6theory11quantifiers4inst11TriggerTrieEESt10_Select1stISA_ESt4lessIS3_ESaISA_EED2Ev.exit, %16
  ret void

.lr.ph:                                           ; preds = %.lr.ph.preheader, %30
  %.05 = phi i64 [ %31, %30 ], [ 0, %.lr.ph.preheader ]
  %22 = load ptr, ptr %0, align 8, !tbaa !19
  %23 = getelementptr inbounds nuw ptr, ptr %22, i64 %.05
  %24 = load ptr, ptr %23, align 8, !tbaa !21
  %25 = icmp eq ptr %24, null
  br i1 %25, label %30, label %26

26:                                               ; preds = %.lr.ph
  %27 = load ptr, ptr %24, align 8, !tbaa !23
  %28 = getelementptr inbounds nuw i8, ptr %27, i64 8
  %29 = load ptr, ptr %28, align 8
  tail call void %29(ptr noundef nonnull align 8 dereferenceable(192) %24) #22
  br label %30

30:                                               ; preds = %.lr.ph, %26
  %31 = add nuw i64 %.05, 1
  %exitcond.not = icmp eq i64 %31, %umax
  br i1 %exitcond.not, label %._crit_edge, label %.lr.ph, !llvm.loop !25
}